; ModuleID = '40/70.c'
source_filename = "40/70.c"
target datalayout = "e-m:e-p270:32:32-p271:32:32-p272:64:64-i64:64-f80:128-n8:16:32:64-S128"
target triple = "x86_64-pc-linux-gnu"

@.str = private unnamed_addr constant [16 x i8] c"%lf%lf%lf%lf%lf\00", align 1
@.str.1 = private unnamed_addr constant [15 x i8] c"Invalid input\0A\00", align 1
@.str.2 = private unnamed_addr constant [5 x i8] c"%.4f\00", align 1

; Function Attrs: noinline nounwind uwtable
define dso_local i32 @main(i32 %0, i8** %1) #0 {
  %3 = alloca i32, align 4
  %4 = alloca i32, align 4
  %5 = alloca i8**, align 8
  %6 = alloca double, align 8
  %7 = alloca double, align 8
  %8 = alloca double, align 8
  %9 = alloca double, align 8
  %10 = alloca double, align 8
  %11 = alloca double, align 8
  %12 = alloca double, align 8
  %13 = alloca double, align 8
  store i32 0, i32* %3, align 4
  store i32 %0, i32* %4, align 4
  store i8** %1, i8*** %5, align 8
  %14 = call i32 (i8*, ...) @__isoc99_scanf(i8* getelementptr inbounds ([16 x i8], [16 x i8]* @.str, i64 0, i64 0), double* %6, double* %7, double* %8, double* %9, double* %10)
  %15 = load double, double* %6, align 8
  %16 = load double, double* %7, align 8
  %17 = fadd double %15, %16
  %18 = load double, double* %8, align 8
  %19 = fadd double %17, %18
  %20 = load double, double* %9, align 8
  %21 = fadd double %19, %20
  %22 = fmul double 5.000000e-01, %21
  store double %22, double* %11, align 8
  %23 = load double, double* %10, align 8
  %24 = fdiv double %23, 1.800000e+02
  %25 = fmul double %24, 0x400921FB4D12D84A
  store double %25, double* %13, align 8
  %26 = load double, double* %11, align 8
  %27 = load double, double* %6, align 8
  %28 = fsub double %26, %27
  %29 = load double, double* %11, align 8
  %30 = load double, double* %7, align 8
  %31 = fsub double %29, %30
  %32 = fmul double %28, %31
  %33 = load double, double* %11, align 8
  %34 = load double, double* %8, align 8
  %35 = fsub double %33, %34
  %36 = fmul double %32, %35
  %37 = load double, double* %11, align 8
  %38 = load double, double* %9, align 8
  %39 = fsub double %37, %38
  %40 = fmul double %36, %39
  %41 = load double, double* %6, align 8
  %42 = load double, double* %7, align 8
  %43 = fmul double %41, %42
  %44 = load double, double* %8, align 8
  %45 = fmul double %43, %44
  %46 = load double, double* %9, align 8
  %47 = fmul double %45, %46
  %48 = load double, double* %13, align 8
  %49 = fdiv double %48, 2.000000e+00
  %50 = call double @cos(double %49) #3
  %51 = fmul double %47, %50
  %52 = load double, double* %13, align 8
  %53 = fdiv double %52, 2.000000e+00
  %54 = call double @cos(double %53) #3
  %55 = fmul double %51, %54
  %56 = fsub double %40, %55
  %57 = fcmp olt double %56, 0.000000e+00
  br i1 %57, label %58, label %60

58:                                               ; preds = %2
  %59 = call i32 (i8*, ...) @printf(i8* getelementptr inbounds ([15 x i8], [15 x i8]* @.str.1, i64 0, i64 0))
  br label %95

60:                                               ; preds = %2
  %61 = load double, double* %11, align 8
  %62 = load double, double* %6, align 8
  %63 = fsub double %61, %62
  %64 = load double, double* %11, align 8
  %65 = load double, double* %7, align 8
  %66 = fsub double %64, %65
  %67 = fmul double %63, %66
  %68 = load double, double* %11, align 8
  %69 = load double, double* %8, align 8
  %70 = fsub double %68, %69
  %71 = fmul double %67, %70
  %72 = load double, double* %11, align 8
  %73 = load double, double* %9, align 8
  %74 = fsub double %72, %73
  %75 = fmul double %71, %74
  %76 = load double, double* %6, align 8
  %77 = load double, double* %7, align 8
  %78 = fmul double %76, %77
  %79 = load double, double* %8, align 8
  %80 = fmul double %78, %79
  %81 = load double, double* %9, align 8
  %82 = fmul double %80, %81
  %83 = load double, double* %13, align 8
  %84 = fdiv double %83, 2.000000e+00
  %85 = call double @cos(double %84) #3
  %86 = fmul double %82, %85
  %87 = load double, double* %13, align 8
  %88 = fdiv double %87, 2.000000e+00
  %89 = call double @cos(double %88) #3
  %90 = fmul double %86, %89
  %91 = fsub double %75, %90
  %92 = call double @sqrt(double %91) #3
  store double %92, double* %12, align 8
  %93 = load double, double* %12, align 8
  %94 = call i32 (i8*, ...) @printf(i8* getelementptr inbounds ([5 x i8], [5 x i8]* @.str.2, i64 0, i64 0), double %93)
  br label %95

95:                                               ; preds = %60, %58
  ret i32 0
}

declare dso_local i32 @__isoc99_scanf(i8*, ...) #1

; Function Attrs: nounwind
declare dso_local double @cos(double) #2

declare dso_local i32 @printf(i8*, ...) #1

; Function Attrs: nounwind
declare dso_local double @sqrt(double) #2


!llvm.module.flags = !{!0}
!llvm.ident = !{!1}

!0 = !{i32 1, !"wchar_size", i32 4}
!1 = !{!"clang version 10.0.0-4ubuntu1 "}
